target datalayout = "e-m:e-p270:32:32-p271:32:32-p272:64:64-i64:64-i128:128-f80:128-n8:16:32:64-S128"
target triple = "x86_64-unknown-linux-gnu"

%"class.icu_75::LocaleMatcher" = type { ptr, ptr, i32, i32, i32, i32, ptr, ptr, i32, ptr, ptr, ptr, i32, ptr, ptr }

@_ZN6icu_7513LocaleMatcherD1Ev = unnamed_addr alias void (ptr), ptr @_ZN6icu_7513LocaleMatcherD2Ev

; Function Attrs: mustprogress nounwind uwtable
define noundef nonnull align 8 dereferenceable(104) ptr @_ZN6icu_7513LocaleMatcheraSEOS0_(ptr noundef nonnull align 8 dereferenceable(104) %this, ptr noundef nonnull align 8 dereferenceable(104) %src) #0 align 2 {
entry:
  %this.addr = alloca ptr, align 8
  %src.addr = alloca ptr, align 8
  store ptr %this, ptr %this.addr, align 8
  store ptr %src, ptr %src.addr, align 8
  %this1 = load ptr, ptr %this.addr, align 8
  call void @_ZN6icu_7513LocaleMatcherD1Ev(ptr noundef nonnull align 8 dereferenceable(104) %this1) #11
  %0 = load ptr, ptr %src.addr, align 8
  %thresholdDistance = getelementptr inbounds %"class.icu_75::LocaleMatcher", ptr %0, i32 0, i32 2
  %1 = load i32, ptr %thresholdDistance, align 8
  %thresholdDistance2 = getelementptr inbounds %"class.icu_75::LocaleMatcher", ptr %this1, i32 0, i32 2
  store i32 %1, ptr %thresholdDistance2, align 8
  %2 = load ptr, ptr %src.addr, align 8
  %demotionPerDesiredLocale = getelementptr inbounds %"class.icu_75::LocaleMatcher", ptr %2, i32 0, i32 3
  %3 = load i32, ptr %demotionPerDesiredLocale, align 4
  %demotionPerDesiredLocale3 = getelementptr inbounds %"class.icu_75::LocaleMatcher", ptr %this1, i32 0, i32 3
  store i32 %3, ptr %demotionPerDesiredLocale3, align 4
  %4 = load ptr, ptr %src.addr, align 8
  %favorSubtag = getelementptr inbounds %"class.icu_75::LocaleMatcher", ptr %4, i32 0, i32 4
  %5 = load i32, ptr %favorSubtag, align 8
  %favorSubtag4 = getelementptr inbounds %"class.icu_75::LocaleMatcher", ptr %this1, i32 0, i32 4
  store i32 %5, ptr %favorSubtag4, align 8
  %6 = load ptr, ptr %src.addr, align 8
  %direction = getelementptr inbounds %"class.icu_75::LocaleMatcher", ptr %6, i32 0, i32 5
  %7 = load i32, ptr %direction, align 4
  %direction5 = getelementptr inbounds %"class.icu_75::LocaleMatcher", ptr %this1, i32 0, i32 5
  store i32 %7, ptr %direction5, align 4
  %8 = load ptr, ptr %src.addr, align 8
  %supportedLocales = getelementptr inbounds %"class.icu_75::LocaleMatcher", ptr %8, i32 0, i32 6
  %9 = load ptr, ptr %supportedLocales, align 8
  %supportedLocales6 = getelementptr inbounds %"class.icu_75::LocaleMatcher", ptr %this1, i32 0, i32 6
  store ptr %9, ptr %supportedLocales6, align 8
  %10 = load ptr, ptr %src.addr, align 8
  %lsrs = getelementptr inbounds %"class.icu_75::LocaleMatcher", ptr %10, i32 0, i32 7
  %11 = load ptr, ptr %lsrs, align 8
  %lsrs7 = getelementptr inbounds %"class.icu_75::LocaleMatcher", ptr %this1, i32 0, i32 7
  store ptr %11, ptr %lsrs7, align 8
  %12 = load ptr, ptr %src.addr, align 8
  %supportedLocalesLength = getelementptr inbounds %"class.icu_75::LocaleMatcher", ptr %12, i32 0, i32 8
  %13 = load i32, ptr %supportedLocalesLength, align 8
  %supportedLocalesLength8 = getelementptr inbounds %"class.icu_75::LocaleMatcher", ptr %this1, i32 0, i32 8
  store i32 %13, ptr %supportedLocalesLength8, align 8
  %14 = load ptr, ptr %src.addr, align 8
  %supportedLsrToIndex = getelementptr inbounds %"class.icu_75::LocaleMatcher", ptr %14, i32 0, i32 9
  %15 = load ptr, ptr %supportedLsrToIndex, align 8
  %supportedLsrToIndex9 = getelementptr inbounds %"class.icu_75::LocaleMatcher", ptr %this1, i32 0, i32 9
  store ptr %15, ptr %supportedLsrToIndex9, align 8
  %16 = load ptr, ptr %src.addr, align 8
  %supportedLSRs = getelementptr inbounds %"class.icu_75::LocaleMatcher", ptr %16, i32 0, i32 10
  %17 = load ptr, ptr %supportedLSRs, align 8
  %supportedLSRs10 = getelementptr inbounds %"class.icu_75::LocaleMatcher", ptr %this1, i32 0, i32 10
  store ptr %17, ptr %supportedLSRs10, align 8
  %18 = load ptr, ptr %src.addr, align 8
  %supportedIndexes = getelementptr inbounds %"class.icu_75::LocaleMatcher", ptr %18, i32 0, i32 11
  %19 = load ptr, ptr %supportedIndexes, align 8
  %supportedIndexes11 = getelementptr inbounds %"class.icu_75::LocaleMatcher", ptr %this1, i32 0, i32 11
  store ptr %19, ptr %supportedIndexes11, align 8
  %20 = load ptr, ptr %src.addr, align 8
  %supportedLSRsLength = getelementptr inbounds %"class.icu_75::LocaleMatcher", ptr %20, i32 0, i32 12
  %21 = load i32, ptr %supportedLSRsLength, align 8
  %supportedLSRsLength12 = getelementptr inbounds %"class.icu_75::LocaleMatcher", ptr %this1, i32 0, i32 12
  store i32 %21, ptr %supportedLSRsLength12, align 8
  %22 = load ptr, ptr %src.addr, align 8
  %ownedDefaultLocale = getelementptr inbounds %"class.icu_75::LocaleMatcher", ptr %22, i32 0, i32 13
  %23 = load ptr, ptr %ownedDefaultLocale, align 8
  %ownedDefaultLocale13 = getelementptr inbounds %"class.icu_75::LocaleMatcher", ptr %this1, i32 0, i32 13
  store ptr %23, ptr %ownedDefaultLocale13, align 8
  %24 = load ptr, ptr %src.addr, align 8
  %defaultLocale = getelementptr inbounds %"class.icu_75::LocaleMatcher", ptr %24, i32 0, i32 14
  %25 = load ptr, ptr %defaultLocale, align 8
  %defaultLocale14 = getelementptr inbounds %"class.icu_75::LocaleMatcher", ptr %this1, i32 0, i32 14
  store ptr %25, ptr %defaultLocale14, align 8
  %26 = load ptr, ptr %src.addr, align 8
  %supportedLocales15 = getelementptr inbounds %"class.icu_75::LocaleMatcher", ptr %26, i32 0, i32 6
  store ptr null, ptr %supportedLocales15, align 8
  %27 = load ptr, ptr %src.addr, align 8
  %lsrs16 = getelementptr inbounds %"class.icu_75::LocaleMatcher", ptr %27, i32 0, i32 7
  store ptr null, ptr %lsrs16, align 8
  %28 = load ptr, ptr %src.addr, align 8
  %supportedLocalesLength17 = getelementptr inbounds %"class.icu_75::LocaleMatcher", ptr %28, i32 0, i32 8
  store i32 0, ptr %supportedLocalesLength17, align 8
  %29 = load ptr, ptr %src.addr, align 8
  %supportedLsrToIndex18 = getelementptr inbounds %"class.icu_75::LocaleMatcher", ptr %29, i32 0, i32 9
  store ptr null, ptr %supportedLsrToIndex18, align 8
  %30 = load ptr, ptr %src.addr, align 8
  %supportedLSRs19 = getelementptr inbounds %"class.icu_75::LocaleMatcher", ptr %30, i32 0, i32 10
  store ptr null, ptr %supportedLSRs19, align 8
  %31 = load ptr, ptr %src.addr, align 8
  %supportedIndexes20 = getelementptr inbounds %"class.icu_75::LocaleMatcher", ptr %31, i32 0, i32 11
  store ptr null, ptr %supportedIndexes20, align 8
  %32 = load ptr, ptr %src.addr, align 8
  %supportedLSRsLength21 = getelementptr inbounds %"class.icu_75::LocaleMatcher", ptr %32, i32 0, i32 12
  store i32 0, ptr %supportedLSRsLength21, align 8
  %33 = load ptr, ptr %src.addr, align 8
  %ownedDefaultLocale22 = getelementptr inbounds %"class.icu_75::LocaleMatcher", ptr %33, i32 0, i32 13
  store ptr null, ptr %ownedDefaultLocale22, align 8
  %34 = load ptr, ptr %src.addr, align 8
  %defaultLocale23 = getelementptr inbounds %"class.icu_75::LocaleMatcher", ptr %34, i32 0, i32 14
  store ptr null, ptr %defaultLocale23, align 8
  ret ptr %this1
}