; Function Attrs: mustprogress nounwind uwtable
define noundef nonnull align 8 dereferenceable(104) ptr @_ZN6icu_7513LocaleMatcheraSEOS0_(ptr noundef nonnull returned align 8 dereferenceable(104) %this, ptr nocapture noundef nonnull align 8 dereferenceable(104) %src) local_unnamed_addr #1 align 2 {
entry:
  tail call void @_ZN6icu_7513LocaleMatcherD1Ev(ptr noundef nonnull align 8 dereferenceable(104) %this) #15
  %thresholdDistance = getelementptr inbounds i8, ptr %src, i64 16
  %0 = load i32, ptr %thresholdDistance, align 8
  %thresholdDistance2 = getelementptr inbounds i8, ptr %this, i64 16
  store i32 %0, ptr %thresholdDistance2, align 8
  %demotionPerDesiredLocale = getelementptr inbounds i8, ptr %src, i64 20
  %1 = load i32, ptr %demotionPerDesiredLocale, align 4
  %demotionPerDesiredLocale3 = getelementptr inbounds i8, ptr %this, i64 20
  store i32 %1, ptr %demotionPerDesiredLocale3, align 4
  %favorSubtag = getelementptr inbounds i8, ptr %src, i64 24
  %2 = load i32, ptr %favorSubtag, align 8
  %favorSubtag4 = getelementptr inbounds i8, ptr %this, i64 24
  store i32 %2, ptr %favorSubtag4, align 8
  %direction = getelementptr inbounds i8, ptr %src, i64 28
  %3 = load i32, ptr %direction, align 4
  %direction5 = getelementptr inbounds i8, ptr %this, i64 28
  store i32 %3, ptr %direction5, align 4
  %supportedLocales = getelementptr inbounds i8, ptr %src, i64 32
  %4 = load ptr, ptr %supportedLocales, align 8
  %supportedLocales6 = getelementptr inbounds i8, ptr %this, i64 32
  store ptr %4, ptr %supportedLocales6, align 8
  %lsrs = getelementptr inbounds i8, ptr %src, i64 40
  %5 = load ptr, ptr %lsrs, align 8
  %lsrs7 = getelementptr inbounds i8, ptr %this, i64 40
  store ptr %5, ptr %lsrs7, align 8
  %supportedLocalesLength = getelementptr inbounds i8, ptr %src, i64 48
  %6 = load i32, ptr %supportedLocalesLength, align 8
  %supportedLocalesLength8 = getelementptr inbounds i8, ptr %this, i64 48
  store i32 %6, ptr %supportedLocalesLength8, align 8
  %supportedLsrToIndex = getelementptr inbounds i8, ptr %src, i64 56
  %7 = load ptr, ptr %supportedLsrToIndex, align 8
  %supportedLsrToIndex9 = getelementptr inbounds i8, ptr %this, i64 56
  store ptr %7, ptr %supportedLsrToIndex9, align 8
  %supportedLSRs = getelementptr inbounds i8, ptr %src, i64 64
  %8 = load ptr, ptr %supportedLSRs, align 8
  %supportedLSRs10 = getelementptr inbounds i8, ptr %this, i64 64
  store ptr %8, ptr %supportedLSRs10, align 8
  %supportedIndexes = getelementptr inbounds i8, ptr %src, i64 72
  %9 = load ptr, ptr %supportedIndexes, align 8
  %supportedIndexes11 = getelementptr inbounds i8, ptr %this, i64 72
  store ptr %9, ptr %supportedIndexes11, align 8
  %supportedLSRsLength = getelementptr inbounds i8, ptr %src, i64 80
  %10 = load i32, ptr %supportedLSRsLength, align 8
  %supportedLSRsLength12 = getelementptr inbounds i8, ptr %this, i64 80
  store i32 %10, ptr %supportedLSRsLength12, align 8
  %ownedDefaultLocale = getelementptr inbounds i8, ptr %src, i64 88
  %11 = load ptr, ptr %ownedDefaultLocale, align 8
  %ownedDefaultLocale13 = getelementptr inbounds i8, ptr %this, i64 88
  store ptr %11, ptr %ownedDefaultLocale13, align 8
  %defaultLocale = getelementptr inbounds i8, ptr %src, i64 96
  %12 = load ptr, ptr %defaultLocale, align 8
  %defaultLocale14 = getelementptr inbounds i8, ptr %this, i64 96
  store ptr %12, ptr %defaultLocale14, align 8
  tail call void @llvm.memset.p0.i64(ptr noundef nonnull align 8 dereferenceable(20) %supportedLocales, i8 0, i64 20, i1 false)
  tail call void @llvm.memset.p0.i64(ptr noundef nonnull align 8 dereferenceable(28) %supportedLsrToIndex, i8 0, i64 28, i1 false)
  tail call void @llvm.memset.p0.i64(ptr noundef nonnull align 8 dereferenceable(16) %ownedDefaultLocale, i8 0, i64 16, i1 false)
  ret ptr %this
}